target datalayout = "e-m:e-p270:32:32-p271:32:32-p272:64:64-i64:64-i128:128-f80:128-n8:16:32:64-S128"
target triple = "x86_64-pc-linux-gnu"

%"struct.faiss::Index.base" = type <{ ptr, i32, [4 x i8], i64, i8, i8, [2 x i8], i32, float }>
%"struct.faiss::Index" = type <{ ptr, i32, [4 x i8], i64, i8, i8, [2 x i8], i32, float, [4 x i8] }>
%"struct.faiss::RandomGenerator" = type { %"class.std::mersenne_twister_engine" }
%"class.std::mersenne_twister_engine" = type { [624 x i64], i64 }
%"struct.faiss::IndexRandom" = type { %"struct.faiss::Index.base", i64 }

; Function Attrs: mustprogress uwtable
define void @_ZNK5faiss11IndexRandom11reconstructElPf(ptr noundef nonnull align 8 dereferenceable(48) %0, i64 noundef %1, ptr noundef %2) unnamed_addr #1 align 2 {
  %4 = alloca ptr, align 8
  %5 = alloca i64, align 8
  %6 = alloca ptr, align 8
  %7 = alloca %"struct.faiss::RandomGenerator", align 8
  %8 = alloca i64, align 8
  store ptr %0, ptr %4, align 8
  store i64 %1, ptr %5, align 8
  store ptr %2, ptr %6, align 8
  %9 = load ptr, ptr %4, align 8
  %10 = getelementptr inbounds %"struct.faiss::IndexRandom", ptr %9, i32 0, i32 1
  %11 = load i64, ptr %10, align 8
  %12 = add nsw i64 %11, 123332
  %13 = load i64, ptr %5, align 8
  %14 = add nsw i64 %12, %13
  call void @_ZN5faiss15RandomGeneratorC1El(ptr noundef nonnull align 8 dereferenceable(5000) %7, i64 noundef %14)
  store i64 0, ptr %8, align 8
  br label %15

15:                                               ; preds = %26, %3
  %16 = load i64, ptr %8, align 8
  %17 = getelementptr inbounds %"struct.faiss::Index", ptr %9, i32 0, i32 1
  %18 = load i32, ptr %17, align 8
  %19 = sext i32 %18 to i64
  %20 = icmp ult i64 %16, %19
  br i1 %20, label %21, label %29

21:                                               ; preds = %15
  %22 = call noundef float @_ZN5faiss15RandomGenerator10rand_floatEv(ptr noundef nonnull align 8 dereferenceable(5000) %7)
  %23 = load ptr, ptr %6, align 8
  %24 = load i64, ptr %8, align 8
  %25 = getelementptr inbounds float, ptr %23, i64 %24
  store float %22, ptr %25, align 4
  br label %26

26:                                               ; preds = %21
  %27 = load i64, ptr %8, align 8
  %28 = add i64 %27, 1
  store i64 %28, ptr %8, align 8
  br label %15, !llvm.loop !10

29:                                               ; preds = %15
  ret void
}