; Function Attrs: mustprogress uwtable
define void @_ZNK5faiss11IndexRandom11reconstructElPf(ptr nocapture noundef nonnull readonly align 8 dereferenceable(48) %0, i64 noundef %1, ptr nocapture noundef writeonly %2) unnamed_addr #3 align 2 {
  %4 = alloca %"struct.faiss::RandomGenerator", align 8
  %5 = getelementptr inbounds i8, ptr %0, i64 40
  %6 = load i64, ptr %5, align 8
  %7 = add i64 %1, 123332
  %8 = add i64 %7, %6
  call void @_ZN5faiss15RandomGeneratorC1El(ptr noundef nonnull align 8 dereferenceable(5000) %4, i64 noundef %8)
  %9 = getelementptr inbounds i8, ptr %0, i64 8
  %10 = load i32, ptr %9, align 8
  %.not = icmp eq i32 %10, 0
  br i1 %.not, label %._crit_edge, label %.lr.ph

.lr.ph:                                           ; preds = %3, %.lr.ph
  %.05 = phi i64 [ %13, %.lr.ph ], [ 0, %3 ]
  %11 = call noundef float @_ZN5faiss15RandomGenerator10rand_floatEv(ptr noundef nonnull align 8 dereferenceable(5000) %4)
  %12 = getelementptr inbounds float, ptr %2, i64 %.05
  store float %11, ptr %12, align 4
  %13 = add nuw i64 %.05, 1
  %14 = load i32, ptr %9, align 8
  %15 = sext i32 %14 to i64
  %16 = icmp ult i64 %13, %15
  br i1 %16, label %.lr.ph, label %._crit_edge, !llvm.loop !18

._crit_edge:                                      ; preds = %.lr.ph, %3
  ret void
}